target datalayout = "e-m:e-p270:32:32-p271:32:32-p272:64:64-i64:64-i128:128-f80:128-n8:16:32:64-S128"
target triple = "x86_64-pc-linux-gnu"

%struct.Ssw_RarPars_t_ = type { i32, i32, i32, i32, i32, i32, i32, i32, i32, i32, i32, i32, i32, i32, i32, i32, i32, i32, i32, ptr, ptr }
%struct.Ssw_RarMan_t_ = type { ptr, i32, i32, ptr, ptr, ptr, ptr, ptr, ptr, ptr, ptr, ptr, ptr, i32, i32, ptr }
%struct.Aig_Man_t_ = type { ptr, ptr, ptr, ptr, ptr, ptr, ptr, %struct.Aig_Obj_t_, i32, i32, i32, i32, i32, i32, [7 x i32], i32, ptr, i32, ptr, i32, ptr, i32, i32, i32, ptr, i32, i32, i32, i32, i32, ptr, ptr, i32, ptr, ptr, i32, ptr, ptr, i32, i32, i32, ptr, ptr, ptr, ptr, ptr, ptr, ptr, ptr, ptr, ptr, ptr, ptr, ptr, ptr, i32, ptr, ptr, ptr, ptr, i32, i64, i64, i64, ptr, ptr }
%struct.Aig_Obj_t_ = type { %union.anon, ptr, ptr, i64, i32, i32, %union.anon.0 }
%union.anon = type { ptr }
%union.anon.0 = type { ptr }
%struct.Vec_Ptr_t_ = type { i32, i32, ptr }
%struct.Vec_Int_t_ = type { i32, i32, ptr }

; Function Attrs: inlinehint nounwind uwtable
define internal i32 @Saig_ManPoNum(ptr noundef %0) #4 {
  %2 = alloca ptr, align 8
  store ptr %0, ptr %2, align 8, !tbaa !53
  %3 = load ptr, ptr %2, align 8, !tbaa !53
  %4 = getelementptr inbounds nuw %struct.Aig_Man_t_, ptr %3, i32 0, i32 10
  %5 = load i32, ptr %4, align 8, !tbaa !115
  ret i32 %5
}

; Function Attrs: inlinehint nounwind uwtable
define internal ptr @Saig_ManLo(ptr noundef %0, i32 noundef %1) #4 {
  %3 = alloca ptr, align 8
  %4 = alloca i32, align 4
  store ptr %0, ptr %3, align 8, !tbaa !53
  store i32 %1, ptr %4, align 4, !tbaa !24
  %5 = load ptr, ptr %3, align 8, !tbaa !53
  %6 = getelementptr inbounds nuw %struct.Aig_Man_t_, ptr %5, i32 0, i32 2
  %7 = load ptr, ptr %6, align 8, !tbaa !38
  %8 = load ptr, ptr %3, align 8, !tbaa !53
  %9 = call i32 @Saig_ManPiNum(ptr noundef %8)
  %10 = load i32, ptr %4, align 4, !tbaa !24
  %11 = add nsw i32 %9, %10
  %12 = call ptr @Vec_PtrEntry(ptr noundef %7, i32 noundef %11)
  ret ptr %12
}

; Function Attrs: inlinehint nounwind uwtable
define internal ptr @Saig_ManLi(ptr noundef %0, i32 noundef %1) #4 {
  %3 = alloca ptr, align 8
  %4 = alloca i32, align 4
  store ptr %0, ptr %3, align 8, !tbaa !53
  store i32 %1, ptr %4, align 4, !tbaa !24
  %5 = load ptr, ptr %3, align 8, !tbaa !53
  %6 = getelementptr inbounds nuw %struct.Aig_Man_t_, ptr %5, i32 0, i32 3
  %7 = load ptr, ptr %6, align 8, !tbaa !94
  %8 = load ptr, ptr %3, align 8, !tbaa !53
  %9 = call i32 @Saig_ManPoNum(ptr noundef %8)
  %10 = load i32, ptr %4, align 4, !tbaa !24
  %11 = add nsw i32 %9, %10
  %12 = call ptr @Vec_PtrEntry(ptr noundef %7, i32 noundef %11)
  ret ptr %12
}

; Function Attrs: inlinehint nounwind uwtable
define internal i32 @Vec_IntEntry(ptr noundef %0, i32 noundef %1) #4 {
  %3 = alloca ptr, align 8
  %4 = alloca i32, align 4
  store ptr %0, ptr %3, align 8, !tbaa !61
  store i32 %1, ptr %4, align 4, !tbaa !24
  %5 = load ptr, ptr %3, align 8, !tbaa !61
  %6 = getelementptr inbounds nuw %struct.Vec_Int_t_, ptr %5, i32 0, i32 2
  %7 = load ptr, ptr %6, align 8, !tbaa !72
  %8 = load i32, ptr %4, align 4, !tbaa !24
  %9 = sext i32 %8 to i64
  %10 = getelementptr inbounds i32, ptr %7, i64 %9
  %11 = load i32, ptr %10, align 4, !tbaa !24
  ret i32 %11
}

; Function Attrs: inlinehint nounwind uwtable
define internal ptr @Vec_PtrEntry(ptr noundef %0, i32 noundef %1) #4 {
  %3 = alloca ptr, align 8
  %4 = alloca i32, align 4
  store ptr %0, ptr %3, align 8, !tbaa !55
  store i32 %1, ptr %4, align 4, !tbaa !24
  %5 = load ptr, ptr %3, align 8, !tbaa !55
  %6 = getelementptr inbounds nuw %struct.Vec_Ptr_t_, ptr %5, i32 0, i32 2
  %7 = load ptr, ptr %6, align 8, !tbaa !56
  %8 = load i32, ptr %4, align 4, !tbaa !24
  %9 = sext i32 %8 to i64
  %10 = getelementptr inbounds ptr, ptr %7, i64 %9
  %11 = load ptr, ptr %10, align 8, !tbaa !58
  ret ptr %11
}

; Function Attrs: inlinehint nounwind uwtable
define internal i32 @Saig_ManPiNum(ptr noundef %0) #4 {
  %2 = alloca ptr, align 8
  store ptr %0, ptr %2, align 8, !tbaa !53
  %3 = load ptr, ptr %2, align 8, !tbaa !53
  %4 = getelementptr inbounds nuw %struct.Aig_Man_t_, ptr %3, i32 0, i32 9
  %5 = load i32, ptr %4, align 4, !tbaa !54
  ret i32 %5
}

; Function Attrs: inlinehint nounwind uwtable
define internal i32 @Saig_ManRegNum(ptr noundef %0) #4 {
  %2 = alloca ptr, align 8
  store ptr %0, ptr %2, align 8, !tbaa !53
  %3 = load ptr, ptr %2, align 8, !tbaa !53
  %4 = getelementptr inbounds nuw %struct.Aig_Man_t_, ptr %3, i32 0, i32 8
  %5 = load i32, ptr %4, align 8, !tbaa !73
  ret i32 %5
}

; Function Attrs: inlinehint nounwind uwtable
define internal ptr @Ssw_RarObjSim(ptr noundef %0, i32 noundef %1) #4 {
  %3 = alloca ptr, align 8
  %4 = alloca i32, align 4
  store ptr %0, ptr %3, align 8, !tbaa !27
  store i32 %1, ptr %4, align 4, !tbaa !24
  %5 = load ptr, ptr %3, align 8, !tbaa !27
  %6 = getelementptr inbounds nuw %struct.Ssw_RarMan_t_, ptr %5, i32 0, i32 6
  %7 = load ptr, ptr %6, align 8, !tbaa !59
  %8 = load ptr, ptr %3, align 8, !tbaa !27
  %9 = getelementptr inbounds nuw %struct.Ssw_RarMan_t_, ptr %8, i32 0, i32 0
  %10 = load ptr, ptr %9, align 8, !tbaa !49
  %11 = getelementptr inbounds nuw %struct.Ssw_RarPars_t_, ptr %10, i32 0, i32 1
  %12 = load i32, ptr %11, align 4, !tbaa !12
  %13 = load i32, ptr %4, align 4, !tbaa !24
  %14 = mul nsw i32 %12, %13
  %15 = sext i32 %14 to i64
  %16 = getelementptr inbounds i64, ptr %7, i64 %15
  ret ptr %16
}

; Function Attrs: inlinehint nounwind uwtable
define internal i32 @Aig_ObjId(ptr noundef %0) #4 {
  %2 = alloca ptr, align 8
  store ptr %0, ptr %2, align 8, !tbaa !47
  %3 = load ptr, ptr %2, align 8, !tbaa !47
  %4 = getelementptr inbounds nuw %struct.Aig_Obj_t_, ptr %3, i32 0, i32 5
  %5 = load i32, ptr %4, align 4, !tbaa !60
  ret i32 %5
}

; Function Attrs: inlinehint nounwind uwtable
define internal ptr @Aig_ManConst1(ptr noundef %0) #4 {
  %2 = alloca ptr, align 8
  store ptr %0, ptr %2, align 8, !tbaa !53
  %3 = load ptr, ptr %2, align 8, !tbaa !53
  %4 = getelementptr inbounds nuw %struct.Aig_Man_t_, ptr %3, i32 0, i32 6
  %5 = load ptr, ptr %4, align 8, !tbaa !101
  ret ptr %5
}

; Function Attrs: nounwind uwtable
define void @Ssw_RarManInitialize(ptr noundef %0, ptr noundef %1) #0 {
  %3 = alloca ptr, align 8
  %4 = alloca ptr, align 8
  %5 = alloca ptr, align 8
  %6 = alloca ptr, align 8
  %7 = alloca ptr, align 8
  %8 = alloca ptr, align 8
  %9 = alloca i32, align 4
  %10 = alloca i32, align 4
  store ptr %0, ptr %3, align 8, !tbaa !27
  store ptr %1, ptr %4, align 8, !tbaa !61
  call void @llvm.lifetime.start.p0(i64 8, ptr %5) #11
  call void @llvm.lifetime.start.p0(i64 8, ptr %6) #11
  call void @llvm.lifetime.start.p0(i64 8, ptr %7) #11
  call void @llvm.lifetime.start.p0(i64 8, ptr %8) #11
  call void @llvm.lifetime.start.p0(i64 4, ptr %9) #11
  call void @llvm.lifetime.start.p0(i64 4, ptr %10) #11
  %11 = load ptr, ptr %3, align 8, !tbaa !27
  %12 = getelementptr inbounds nuw %struct.Ssw_RarMan_t_, ptr %11, i32 0, i32 3
  %13 = load ptr, ptr %12, align 8, !tbaa !29
  %14 = call ptr @Aig_ManConst1(ptr noundef %13)
  store ptr %14, ptr %5, align 8, !tbaa !47
  %15 = load ptr, ptr %3, align 8, !tbaa !27
  %16 = load ptr, ptr %5, align 8, !tbaa !47
  %17 = call i32 @Aig_ObjId(ptr noundef %16)
  %18 = call ptr @Ssw_RarObjSim(ptr noundef %15, i32 noundef %17)
  store ptr %18, ptr %7, align 8, !tbaa !48
  store i32 0, ptr %9, align 4, !tbaa !24
  br label %19

19:                                               ; preds = %32, %2
  %20 = load i32, ptr %9, align 4, !tbaa !24
  %21 = load ptr, ptr %3, align 8, !tbaa !27
  %22 = getelementptr inbounds nuw %struct.Ssw_RarMan_t_, ptr %21, i32 0, i32 0
  %23 = load ptr, ptr %22, align 8, !tbaa !49
  %24 = getelementptr inbounds nuw %struct.Ssw_RarPars_t_, ptr %23, i32 0, i32 1
  %25 = load i32, ptr %24, align 4, !tbaa !12
  %26 = icmp slt i32 %20, %25
  br i1 %26, label %27, label %35

27:                                               ; preds = %19
  %28 = load ptr, ptr %7, align 8, !tbaa !48
  %29 = load i32, ptr %9, align 4, !tbaa !24
  %30 = sext i32 %29 to i64
  %31 = getelementptr inbounds i64, ptr %28, i64 %30
  store i64 -1, ptr %31, align 8, !tbaa !50
  br label %32

32:                                               ; preds = %27
  %33 = load i32, ptr %9, align 4, !tbaa !24
  %34 = add nsw i32 %33, 1
  store i32 %34, ptr %9, align 4, !tbaa !24
  br label %19, !llvm.loop !96

35:                                               ; preds = %19
  %36 = load ptr, ptr %3, align 8, !tbaa !27
  call void @Ssw_RarManAssingRandomPis(ptr noundef %36)
  %37 = load ptr, ptr %4, align 8, !tbaa !61
  %38 = icmp ne ptr %37, null
  br i1 %38, label %39, label %100

39:                                               ; preds = %35
  store i32 0, ptr %10, align 4, !tbaa !24
  br label %40

40:                                               ; preds = %96, %39
  %41 = load i32, ptr %10, align 4, !tbaa !24
  %42 = load ptr, ptr %3, align 8, !tbaa !27
  %43 = getelementptr inbounds nuw %struct.Ssw_RarMan_t_, ptr %42, i32 0, i32 3
  %44 = load ptr, ptr %43, align 8, !tbaa !29
  %45 = call i32 @Saig_ManRegNum(ptr noundef %44)
  %46 = icmp slt i32 %41, %45
  br i1 %46, label %47, label %60

47:                                               ; preds = %40
  %48 = load ptr, ptr %3, align 8, !tbaa !27
  %49 = getelementptr inbounds nuw %struct.Ssw_RarMan_t_, ptr %48, i32 0, i32 3
  %50 = load ptr, ptr %49, align 8, !tbaa !29
  %51 = getelementptr inbounds nuw %struct.Aig_Man_t_, ptr %50, i32 0, i32 2
  %52 = load ptr, ptr %51, align 8, !tbaa !38
  %53 = load i32, ptr %10, align 4, !tbaa !24
  %54 = load ptr, ptr %3, align 8, !tbaa !27
  %55 = getelementptr inbounds nuw %struct.Ssw_RarMan_t_, ptr %54, i32 0, i32 3
  %56 = load ptr, ptr %55, align 8, !tbaa !29
  %57 = call i32 @Saig_ManPiNum(ptr noundef %56)
  %58 = add nsw i32 %53, %57
  %59 = call ptr @Vec_PtrEntry(ptr noundef %52, i32 noundef %58)
  store ptr %59, ptr %5, align 8, !tbaa !47
  br label %60

60:                                               ; preds = %47, %40
  %61 = phi i1 [ false, %40 ], [ true, %47 ]
  br i1 %61, label %62, label %99

62:                                               ; preds = %60
  %63 = load ptr, ptr %3, align 8, !tbaa !27
  %64 = load ptr, ptr %5, align 8, !tbaa !47
  %65 = call i32 @Aig_ObjId(ptr noundef %64)
  %66 = call ptr @Ssw_RarObjSim(ptr noundef %63, i32 noundef %65)
  store ptr %66, ptr %7, align 8, !tbaa !48
  store i32 0, ptr %9, align 4, !tbaa !24
  br label %67

67:                                               ; preds = %92, %62
  %68 = load i32, ptr %9, align 4, !tbaa !24
  %69 = load ptr, ptr %3, align 8, !tbaa !27
  %70 = getelementptr inbounds nuw %struct.Ssw_RarMan_t_, ptr %69, i32 0, i32 0
  %71 = load ptr, ptr %70, align 8, !tbaa !49
  %72 = getelementptr inbounds nuw %struct.Ssw_RarPars_t_, ptr %71, i32 0, i32 1
  %73 = load i32, ptr %72, align 4, !tbaa !12
  %74 = icmp slt i32 %68, %73
  br i1 %74, label %75, label %95

75:                                               ; preds = %67
  %76 = load ptr, ptr %4, align 8, !tbaa !61
  %77 = load i32, ptr %9, align 4, !tbaa !24
  %78 = load ptr, ptr %3, align 8, !tbaa !27
  %79 = getelementptr inbounds nuw %struct.Ssw_RarMan_t_, ptr %78, i32 0, i32 3
  %80 = load ptr, ptr %79, align 8, !tbaa !29
  %81 = call i32 @Saig_ManRegNum(ptr noundef %80)
  %82 = mul nsw i32 %77, %81
  %83 = load i32, ptr %10, align 4, !tbaa !24
  %84 = add nsw i32 %82, %83
  %85 = call i32 @Vec_IntEntry(ptr noundef %76, i32 noundef %84)
  %86 = icmp ne i32 %85, 0
  %87 = select i1 %86, i64 -1, i64 0
  %88 = load ptr, ptr %7, align 8, !tbaa !48
  %89 = load i32, ptr %9, align 4, !tbaa !24
  %90 = sext i32 %89 to i64
  %91 = getelementptr inbounds i64, ptr %88, i64 %90
  store i64 %87, ptr %91, align 8, !tbaa !50
  br label %92

92:                                               ; preds = %75
  %93 = load i32, ptr %9, align 4, !tbaa !24
  %94 = add nsw i32 %93, 1
  store i32 %94, ptr %9, align 4, !tbaa !24
  br label %67, !llvm.loop !97

95:                                               ; preds = %67
  br label %96

96:                                               ; preds = %95
  %97 = load i32, ptr %10, align 4, !tbaa !24
  %98 = add nsw i32 %97, 1
  store i32 %98, ptr %10, align 4, !tbaa !24
  br label %40, !llvm.loop !98

99:                                               ; preds = %60
  br label %157

100:                                              ; preds = %35
  store i32 0, ptr %10, align 4, !tbaa !24
  br label %101

101:                                              ; preds = %153, %100
  %102 = load i32, ptr %10, align 4, !tbaa !24
  %103 = load ptr, ptr %3, align 8, !tbaa !27
  %104 = getelementptr inbounds nuw %struct.Ssw_RarMan_t_, ptr %103, i32 0, i32 3
  %105 = load ptr, ptr %104, align 8, !tbaa !29
  %106 = call i32 @Saig_ManRegNum(ptr noundef %105)
  %107 = icmp slt i32 %102, %106
  br i1 %107, label %108, label %120

108:                                              ; preds = %101
  %109 = load ptr, ptr %3, align 8, !tbaa !27
  %110 = getelementptr inbounds nuw %struct.Ssw_RarMan_t_, ptr %109, i32 0, i32 3
  %111 = load ptr, ptr %110, align 8, !tbaa !29
  %112 = load i32, ptr %10, align 4, !tbaa !24
  %113 = call ptr @Saig_ManLi(ptr noundef %111, i32 noundef %112)
  store ptr %113, ptr %6, align 8, !tbaa !47
  br i1 true, label %114, label %120

114:                                              ; preds = %108
  %115 = load ptr, ptr %3, align 8, !tbaa !27
  %116 = getelementptr inbounds nuw %struct.Ssw_RarMan_t_, ptr %115, i32 0, i32 3
  %117 = load ptr, ptr %116, align 8, !tbaa !29
  %118 = load i32, ptr %10, align 4, !tbaa !24
  %119 = call ptr @Saig_ManLo(ptr noundef %117, i32 noundef %118)
  store ptr %119, ptr %5, align 8, !tbaa !47
  br label %120

120:                                              ; preds = %114, %108, %101
  %121 = phi i1 [ false, %108 ], [ false, %101 ], [ true, %114 ]
  br i1 %121, label %122, label %156

122:                                              ; preds = %120
  %123 = load ptr, ptr %3, align 8, !tbaa !27
  %124 = load ptr, ptr %6, align 8, !tbaa !47
  %125 = call i32 @Aig_ObjId(ptr noundef %124)
  %126 = call ptr @Ssw_RarObjSim(ptr noundef %123, i32 noundef %125)
  store ptr %126, ptr %8, align 8, !tbaa !48
  %127 = load ptr, ptr %3, align 8, !tbaa !27
  %128 = load ptr, ptr %5, align 8, !tbaa !47
  %129 = call i32 @Aig_ObjId(ptr noundef %128)
  %130 = call ptr @Ssw_RarObjSim(ptr noundef %127, i32 noundef %129)
  store ptr %130, ptr %7, align 8, !tbaa !48
  store i32 0, ptr %9, align 4, !tbaa !24
  br label %131

131:                                              ; preds = %149, %122
  %132 = load i32, ptr %9, align 4, !tbaa !24
  %133 = load ptr, ptr %3, align 8, !tbaa !27
  %134 = getelementptr inbounds nuw %struct.Ssw_RarMan_t_, ptr %133, i32 0, i32 0
  %135 = load ptr, ptr %134, align 8, !tbaa !49
  %136 = getelementptr inbounds nuw %struct.Ssw_RarPars_t_, ptr %135, i32 0, i32 1
  %137 = load i32, ptr %136, align 4, !tbaa !12
  %138 = icmp slt i32 %132, %137
  br i1 %138, label %139, label %152

139:                                              ; preds = %131
  %140 = load ptr, ptr %8, align 8, !tbaa !48
  %141 = load i32, ptr %9, align 4, !tbaa !24
  %142 = sext i32 %141 to i64
  %143 = getelementptr inbounds i64, ptr %140, i64 %142
  %144 = load i64, ptr %143, align 8, !tbaa !50
  %145 = load ptr, ptr %7, align 8, !tbaa !48
  %146 = load i32, ptr %9, align 4, !tbaa !24
  %147 = sext i32 %146 to i64
  %148 = getelementptr inbounds i64, ptr %145, i64 %147
  store i64 %144, ptr %148, align 8, !tbaa !50
  br label %149

149:                                              ; preds = %139
  %150 = load i32, ptr %9, align 4, !tbaa !24
  %151 = add nsw i32 %150, 1
  store i32 %151, ptr %9, align 4, !tbaa !24
  br label %131, !llvm.loop !99

152:                                              ; preds = %131
  br label %153

153:                                              ; preds = %152
  %154 = load i32, ptr %10, align 4, !tbaa !24
  %155 = add nsw i32 %154, 1
  store i32 %155, ptr %10, align 4, !tbaa !24
  br label %101, !llvm.loop !100

156:                                              ; preds = %120
  br label %157

157:                                              ; preds = %156, %99
  call void @llvm.lifetime.end.p0(i64 4, ptr %10) #11
  call void @llvm.lifetime.end.p0(i64 4, ptr %9) #11
  call void @llvm.lifetime.end.p0(i64 8, ptr %8) #11
  call void @llvm.lifetime.end.p0(i64 8, ptr %7) #11
  call void @llvm.lifetime.end.p0(i64 8, ptr %6) #11
  call void @llvm.lifetime.end.p0(i64 8, ptr %5) #11
  ret void
}