; Function Attrs: nounwind uwtable
define void @Ssw_RarManInitialize(ptr noundef readonly captures(none) %0, ptr noundef readonly %1) local_unnamed_addr #2 {
  %3 = getelementptr inbounds nuw i8, ptr %0, i64 16
  %.val61 = load ptr, ptr %0, align 8, !tbaa !33
  %4 = getelementptr i8, ptr %0, i64 40
  %5 = getelementptr i8, ptr %.val61, i64 4
  %.val61.val = load i32, ptr %5, align 4, !tbaa !10
  %6 = icmp sgt i32 %.val61.val, 0
  br i1 %6, label %.lr.ph.preheader, label %._crit_edge

.lr.ph.preheader:                                 ; preds = %2
  %.val62 = load ptr, ptr %4, align 8, !tbaa !34
  %7 = load ptr, ptr %3, align 8, !tbaa !14
  %8 = getelementptr i8, ptr %7, i64 48
  %.val66 = load ptr, ptr %8, align 8, !tbaa !82
  %9 = getelementptr i8, ptr %.val66, i64 36
  %.val54 = load i32, ptr %9, align 4, !tbaa !39
  %10 = mul i32 %.val61.val, %.val54
  %11 = sext i32 %10 to i64
  %12 = getelementptr i64, ptr %.val62, i64 %11
  %13 = zext nneg i32 %.val61.val to i64
  %14 = shl nuw nsw i64 %13, 3
  tail call void @llvm.memset.p0.i64(ptr align 8 %12, i8 -1, i64 %14, i1 false), !tbaa !40
  br label %._crit_edge

._crit_edge:                                      ; preds = %.lr.ph.preheader, %2
  tail call void @Ssw_RarManAssingRandomPis(ptr noundef nonnull %0)
  %.not = icmp eq ptr %1, null
  %15 = load ptr, ptr %3, align 8, !tbaa !14
  %16 = getelementptr i8, ptr %15, i64 104
  %.val69 = load i32, ptr %16, align 8, !tbaa !50
  %17 = icmp sgt i32 %.val69, 0
  br i1 %.not, label %.preheader, label %.preheader72

.preheader72:                                     ; preds = %._crit_edge
  br i1 %17, label %.lr.ph80, label %.critedge

.lr.ph80:                                         ; preds = %.preheader72
  %.val59 = load ptr, ptr %0, align 8, !tbaa !33
  %.val60 = load ptr, ptr %4, align 8, !tbaa !34
  %18 = getelementptr i8, ptr %.val59, i64 4
  %.val59.val = load i32, ptr %18, align 4, !tbaa !10
  %19 = icmp sgt i32 %.val59.val, 0
  br i1 %19, label %.lr.ph80.split.us, label %.critedge

.lr.ph80.split.us:                                ; preds = %.lr.ph80
  %20 = getelementptr inbounds nuw i8, ptr %15, i64 16
  %21 = load ptr, ptr %20, align 8, !tbaa !35
  %22 = getelementptr i8, ptr %21, i64 8
  %.val50 = load ptr, ptr %22, align 8, !tbaa !36
  %23 = getelementptr i8, ptr %15, i64 108
  %.val = load i32, ptr %23, align 4, !tbaa !24
  %24 = getelementptr i8, ptr %1, i64 8
  %.val63.us = load ptr, ptr %24, align 8, !tbaa !47
  %25 = zext nneg i32 %.val69 to i64
  %26 = sext i32 %.val to i64
  %invariant.gep108 = getelementptr ptr, ptr %.val50, i64 %26
  %wide.trip.count = zext nneg i32 %.val59.val to i64
  br label %.lr.ph77.us

.lr.ph77.us:                                      ; preds = %._crit_edge78.us, %.lr.ph80.split.us
  %indvars.iv92 = phi i64 [ %indvars.iv.next93, %._crit_edge78.us ], [ 0, %.lr.ph80.split.us ]
  %gep109 = getelementptr ptr, ptr %invariant.gep108, i64 %indvars.iv92
  %27 = load ptr, ptr %gep109, align 8, !tbaa !38
  %28 = getelementptr i8, ptr %27, i64 36
  %.val53.us = load i32, ptr %28, align 4, !tbaa !39
  %29 = mul nsw i32 %.val59.val, %.val53.us
  %30 = sext i32 %29 to i64
  %31 = getelementptr inbounds i64, ptr %.val60, i64 %30
  %invariant.gep = getelementptr inbounds nuw i32, ptr %.val63.us, i64 %indvars.iv92
  br label %32

32:                                               ; preds = %.lr.ph77.us, %32
  %indvars.iv = phi i64 [ 0, %.lr.ph77.us ], [ %indvars.iv.next, %32 ]
  %33 = mul nuw nsw i64 %indvars.iv, %25
  %gep = getelementptr inbounds nuw i32, ptr %invariant.gep, i64 %33
  %34 = load i32, ptr %gep, align 4, !tbaa !45
  %.not49.us = icmp ne i32 %34, 0
  %35 = sext i1 %.not49.us to i64
  %36 = getelementptr inbounds nuw i64, ptr %31, i64 %indvars.iv
  store i64 %35, ptr %36, align 8, !tbaa !40
  %indvars.iv.next = add nuw nsw i64 %indvars.iv, 1
  %exitcond.not = icmp eq i64 %indvars.iv.next, %wide.trip.count
  br i1 %exitcond.not, label %._crit_edge78.us, label %32, !llvm.loop !83

._crit_edge78.us:                                 ; preds = %32
  %indvars.iv.next93 = add nuw nsw i64 %indvars.iv92, 1
  %exitcond96.not = icmp eq i64 %indvars.iv.next93, %25
  br i1 %exitcond96.not, label %.critedge, label %.lr.ph77.us, !llvm.loop !84

.preheader:                                       ; preds = %._crit_edge
  br i1 %17, label %.lr.ph86, label %.critedge

.lr.ph86:                                         ; preds = %.preheader
  %.val57 = load ptr, ptr %0, align 8, !tbaa !33
  %.val58 = load ptr, ptr %4, align 8, !tbaa !34
  %37 = getelementptr i8, ptr %.val57, i64 4
  %.val57.val = load i32, ptr %37, align 4, !tbaa !10
  %38 = icmp sgt i32 %.val57.val, 0
  br i1 %38, label %.lr.ph83.us.preheader, label %.critedge

.lr.ph83.us.preheader:                            ; preds = %.lr.ph86
  %39 = getelementptr i8, ptr %15, i64 16
  %.val70 = load ptr, ptr %39, align 8, !tbaa !35
  %40 = getelementptr i8, ptr %.val70, i64 8
  %.val70.val = load ptr, ptr %40, align 8, !tbaa !36
  %41 = getelementptr i8, ptr %15, i64 24
  %.val64 = load ptr, ptr %41, align 8, !tbaa !78
  %42 = getelementptr i8, ptr %.val64, i64 8
  %.val64.val = load ptr, ptr %42, align 8, !tbaa !36
  %43 = getelementptr i8, ptr %15, i64 108
  %.val71 = load i32, ptr %43, align 4, !tbaa !24
  %44 = getelementptr i8, ptr %15, i64 112
  %.val65 = load i32, ptr %44, align 8, !tbaa !79
  %45 = sext i32 %.val65 to i64
  %46 = sext i32 %.val71 to i64
  %wide.trip.count105 = zext nneg i32 %.val69 to i64
  %invariant.gep110 = getelementptr ptr, ptr %.val64.val, i64 %45
  %invariant.gep112 = getelementptr ptr, ptr %.val70.val, i64 %46
  %wide.trip.count100 = zext nneg i32 %.val57.val to i64
  br label %.lr.ph83.us

.lr.ph83.us:                                      ; preds = %.lr.ph83.us.preheader, %._crit_edge84.us
  %indvars.iv102 = phi i64 [ 0, %.lr.ph83.us.preheader ], [ %indvars.iv.next103, %._crit_edge84.us ]
  %gep111 = getelementptr ptr, ptr %invariant.gep110, i64 %indvars.iv102
  %47 = load ptr, ptr %gep111, align 8, !tbaa !38
  %gep113 = getelementptr ptr, ptr %invariant.gep112, i64 %indvars.iv102
  %48 = load ptr, ptr %gep113, align 8, !tbaa !38
  %49 = getelementptr i8, ptr %47, i64 36
  %.val52.us = load i32, ptr %49, align 4, !tbaa !39
  %50 = mul nsw i32 %.val57.val, %.val52.us
  %51 = sext i32 %50 to i64
  %52 = getelementptr inbounds i64, ptr %.val58, i64 %51
  %53 = getelementptr i8, ptr %48, i64 36
  %.val51.us = load i32, ptr %53, align 4, !tbaa !39
  %54 = mul nsw i32 %.val51.us, %.val57.val
  %55 = sext i32 %54 to i64
  %56 = getelementptr inbounds i64, ptr %.val58, i64 %55
  br label %57

57:                                               ; preds = %.lr.ph83.us, %57
  %indvars.iv97 = phi i64 [ 0, %.lr.ph83.us ], [ %indvars.iv.next98, %57 ]
  %58 = getelementptr inbounds nuw i64, ptr %52, i64 %indvars.iv97
  %59 = load i64, ptr %58, align 8, !tbaa !40
  %60 = getelementptr inbounds nuw i64, ptr %56, i64 %indvars.iv97
  store i64 %59, ptr %60, align 8, !tbaa !40
  %indvars.iv.next98 = add nuw nsw i64 %indvars.iv97, 1
  %exitcond101.not = icmp eq i64 %indvars.iv.next98, %wide.trip.count100
  br i1 %exitcond101.not, label %._crit_edge84.us, label %57, !llvm.loop !85

._crit_edge84.us:                                 ; preds = %57
  %indvars.iv.next103 = add nuw nsw i64 %indvars.iv102, 1
  %exitcond106.not = icmp eq i64 %indvars.iv.next103, %wide.trip.count105
  br i1 %exitcond106.not, label %.critedge, label %.lr.ph83.us, !llvm.loop !86

.critedge:                                        ; preds = %._crit_edge78.us, %._crit_edge84.us, %.lr.ph86, %.lr.ph80, %.preheader72, %.preheader
  ret void
}